target datalayout = "e-m:e-p270:32:32-p271:32:32-p272:64:64-i64:64-i128:128-f80:128-n8:16:32:64-S128"
target triple = "x86_64-pc-linux-gnu"

%struct.tlv_t = type { i16, ptr, ptr }

@.str.1636 = private unnamed_addr constant [10 x i8] c"%s (0x%x)\00", align 1
@.str.1637 = private unnamed_addr constant [8 x i8] c"Unknown\00", align 1

; Function Attrs: nounwind uwtable
define internal ptr @look_up_tlv(i32 noundef %0) #0 {
  %2 = alloca i32, align 4
  %3 = alloca ptr, align 8
  store i32 %0, ptr %2, align 4
  store ptr null, ptr %3, align 8
  %4 = load i32, ptr %2, align 4
  %5 = icmp sge i32 %4, 0
  br i1 %5, label %6, label %13

6:                                                ; preds = %1
  %7 = load i32, ptr %2, align 4
  %8 = icmp sle i32 %7, 307
  br i1 %8, label %9, label %13

9:                                                ; preds = %6
  %10 = load i32, ptr %2, align 4
  %11 = sext i32 %10 to i64
  %12 = getelementptr [308 x %struct.tlv_t], ptr @configuration_tags, i64 0, i64 %11
  store ptr %12, ptr %3, align 8
  br label %49

13:                                               ; preds = %6, %1
  %14 = load i32, ptr %2, align 4
  %15 = icmp sge i32 %14, 4096
  br i1 %15, label %16, label %24

16:                                               ; preds = %13
  %17 = load i32, ptr %2, align 4
  %18 = icmp sle i32 %17, 4109
  br i1 %18, label %19, label %24

19:                                               ; preds = %16
  %20 = load i32, ptr %2, align 4
  %21 = sub i32 %20, 4096
  %22 = sext i32 %21 to i64
  %23 = getelementptr [14 x %struct.tlv_t], ptr @nfapi_tags, i64 0, i64 %22
  store ptr %23, ptr %3, align 8
  br label %48

24:                                               ; preds = %16, %13
  %25 = load i32, ptr %2, align 4
  %26 = icmp sge i32 %25, 8192
  br i1 %26, label %27, label %35

27:                                               ; preds = %24
  %28 = load i32, ptr %2, align 4
  %29 = icmp sle i32 %28, 8283
  br i1 %29, label %30, label %35

30:                                               ; preds = %27
  %31 = load i32, ptr %2, align 4
  %32 = sub i32 %31, 8192
  %33 = sext i32 %32 to i64
  %34 = getelementptr [92 x %struct.tlv_t], ptr @p7_tags, i64 0, i64 %33
  store ptr %34, ptr %3, align 8
  br label %47

35:                                               ; preds = %27, %24
  %36 = load i32, ptr %2, align 4
  %37 = icmp sge i32 %36, 12288
  br i1 %37, label %38, label %46

38:                                               ; preds = %35
  %39 = load i32, ptr %2, align 4
  %40 = icmp sle i32 %39, 12314
  br i1 %40, label %41, label %46

41:                                               ; preds = %38
  %42 = load i32, ptr %2, align 4
  %43 = sub i32 %42, 12288
  %44 = sext i32 %43 to i64
  %45 = getelementptr [27 x %struct.tlv_t], ptr @p4_tags, i64 0, i64 %44
  store ptr %45, ptr %3, align 8
  br label %46

46:                                               ; preds = %41, %38, %35
  br label %47

47:                                               ; preds = %46, %30
  br label %48

48:                                               ; preds = %47, %19
  br label %49

49:                                               ; preds = %48, %9
  %50 = load ptr, ptr %3, align 8
  ret ptr %50
}

; Function Attrs: nounwind uwtable
define internal void @nfapi_tag_vals_fn(ptr noundef %0, i32 noundef %1) #0 {
  %3 = alloca ptr, align 8
  %4 = alloca i32, align 4
  %5 = alloca ptr, align 8
  store ptr %0, ptr %3, align 8
  store i32 %1, ptr %4, align 4
  %6 = load i32, ptr %4, align 4
  %7 = call ptr @look_up_tlv(i32 noundef %6)
  store ptr %7, ptr %5, align 8
  %8 = load ptr, ptr %5, align 8
  %9 = icmp ne ptr %8, null
  br i1 %9, label %10, label %17

10:                                               ; preds = %2
  %11 = load ptr, ptr %3, align 8
  %12 = load ptr, ptr %5, align 8
  %13 = getelementptr inbounds %struct.tlv_t, ptr %12, i32 0, i32 1
  %14 = load ptr, ptr %13, align 8
  %15 = load i32, ptr %4, align 4
  %16 = call i32 (ptr, i64, ptr, ...) @snprintf(ptr noundef %11, i64 noundef 240, ptr noundef @.str.1636, ptr noundef %14, i32 noundef %15) #4
  br label %21

17:                                               ; preds = %2
  %18 = load ptr, ptr %3, align 8
  %19 = load i32, ptr %4, align 4
  %20 = call i32 (ptr, i64, ptr, ...) @snprintf(ptr noundef %18, i64 noundef 240, ptr noundef @.str.1636, ptr noundef @.str.1637, i32 noundef %19) #4
  br label %21

21:                                               ; preds = %17, %10
  ret void
}