; Function Attrs: nofree nounwind uwtable
define internal void @nfapi_tag_vals_fn(ptr noundef writeonly captures(none) %0, i32 noundef %1) #1 {
  %or.cond.i = icmp ult i32 %1, 308
  br i1 %or.cond.i, label %3, label %6

3:                                                ; preds = %2
  %4 = zext nneg i32 %1 to i64
  %5 = getelementptr [308 x %struct.tlv_t], ptr @configuration_tags, i64 0, i64 %4
  br label %look_up_tlv.exit

6:                                                ; preds = %2
  %7 = add i32 %1, -4096
  %or.cond3.i = icmp ult i32 %7, 14
  br i1 %or.cond3.i, label %8, label %11

8:                                                ; preds = %6
  %9 = zext nneg i32 %7 to i64
  %10 = getelementptr [14 x %struct.tlv_t], ptr @nfapi_tags, i64 0, i64 %9
  br label %look_up_tlv.exit

11:                                               ; preds = %6
  %12 = add i32 %1, -8192
  %or.cond5.i = icmp ult i32 %12, 92
  br i1 %or.cond5.i, label %13, label %16

13:                                               ; preds = %11
  %14 = zext nneg i32 %12 to i64
  %15 = getelementptr [92 x %struct.tlv_t], ptr @p7_tags, i64 0, i64 %14
  br label %look_up_tlv.exit

16:                                               ; preds = %11
  %17 = add i32 %1, -12288
  %or.cond7.i = icmp ult i32 %17, 27
  br i1 %or.cond7.i, label %18, label %look_up_tlv.exit.thread

18:                                               ; preds = %16
  %19 = zext nneg i32 %17 to i64
  %20 = getelementptr [27 x %struct.tlv_t], ptr @p4_tags, i64 0, i64 %19
  br label %look_up_tlv.exit

look_up_tlv.exit:                                 ; preds = %3, %8, %13, %18
  %.0.i = phi ptr [ %5, %3 ], [ %10, %8 ], [ %15, %13 ], [ %20, %18 ]
  %.not = icmp eq ptr %.0.i, null
  br i1 %.not, label %look_up_tlv.exit.thread, label %21

21:                                               ; preds = %look_up_tlv.exit
  %22 = getelementptr inbounds nuw i8, ptr %.0.i, i64 8
  %23 = load ptr, ptr %22, align 8
  br label %look_up_tlv.exit.thread

look_up_tlv.exit.thread:                          ; preds = %look_up_tlv.exit, %16, %21
  %.str.1637.sink = phi ptr [ %23, %21 ], [ @.str.1637, %16 ], [ @.str.1637, %look_up_tlv.exit ]
  %24 = tail call i32 (ptr, i64, ptr, ...) @snprintf(ptr noundef nonnull dereferenceable(1) %0, i64 noundef 240, ptr noundef nonnull @.str.1636, ptr noundef %.str.1637.sink, i32 noundef %1) #7
  ret void
}